; Function Attrs: mustprogress uwtable
define hidden range(i64 0, -4294967294) i64 @_ZN12seq_rewriter10min_lengthERK10ref_vectorI4expr11ast_managerE(ptr noundef nonnull align 8 dereferenceable(497) %0, ptr noundef nonnull readonly align 8 captures(none) dereferenceable(16) %1) local_unnamed_addr #3 align 2 {
  %3 = getelementptr inbounds nuw i8, ptr %1, i64 8
  %4 = load ptr, ptr %3, align 8, !tbaa !89
  %5 = icmp eq ptr %4, null
  br i1 %5, label %_ZNK15ref_vector_coreI4expr19ref_manager_wrapperIS0_11ast_managerEE4sizeEv.exit, label %6

6:                                                ; preds = %2
  %7 = getelementptr inbounds i8, ptr %4, i64 -4
  %8 = load i32, ptr %7, align 4, !tbaa !101
  br label %_ZNK15ref_vector_coreI4expr19ref_manager_wrapperIS0_11ast_managerEE4sizeEv.exit

_ZNK15ref_vector_coreI4expr19ref_manager_wrapperIS0_11ast_managerEE4sizeEv.exit: ; preds = %2, %6
  %.0.i.i = phi i32 [ %8, %6 ], [ 0, %2 ]
  %9 = tail call i64 @_ZN12seq_rewriter10min_lengthEjPKP4expr(ptr noundef nonnull align 8 dereferenceable(497) %0, i32 noundef %.0.i.i, ptr noundef %4)
  ret i64 %9
}